target datalayout = "e-m:e-p270:32:32-p271:32:32-p272:64:64-i64:64-i128:128-f80:128-n8:16:32:64-S128"
target triple = "x86_64-pc-linux-gnu"

@.str = private unnamed_addr constant [30 x i8] c"Assertion %s failed at %s:%d\0A\00", align 1
@.str.1 = private unnamed_addr constant [66 x i8] c"mode < INTRA_LT_CCLM && !(mode > INTRA_HORZ && mode < INTRA_VERT)\00", align 1
@.str.2 = private unnamed_addr constant [29 x i8] c"libavcodec/vvc/intra_utils.c\00", align 1
@ff_log2_tab = external constant [256 x i8], align 16

; Function Attrs: nounwind uwtable
define i32 @ff_vvc_intra_inv_angle_derive(i32 noundef %0) #0 {
  %2 = alloca i32, align 4
  %3 = alloca i32, align 4
  store i32 %0, ptr %3, align 4, !tbaa !4
  %4 = load i32, ptr %3, align 4, !tbaa !4
  %5 = icmp sgt i32 %4, 0
  br i1 %5, label %6, label %12

6:                                                ; preds = %1
  %7 = load i32, ptr %3, align 4, !tbaa !4
  %8 = ashr i32 %7, 1
  %9 = add nsw i32 16384, %8
  %10 = load i32, ptr %3, align 4, !tbaa !4
  %11 = sdiv i32 %9, %10
  store i32 %11, ptr %2, align 4
  br label %21

12:                                               ; preds = %1
  %13 = load i32, ptr %3, align 4, !tbaa !4
  %14 = sub nsw i32 0, %13
  %15 = ashr i32 %14, 1
  %16 = add nsw i32 16384, %15
  %17 = load i32, ptr %3, align 4, !tbaa !4
  %18 = sub nsw i32 0, %17
  %19 = sdiv i32 %16, %18
  %20 = sub nsw i32 0, %19
  store i32 %20, ptr %2, align 4
  br label %21

21:                                               ; preds = %12, %6
  %22 = load i32, ptr %2, align 4
  ret i32 %22
}

; Function Attrs: nounwind uwtable
define i32 @ff_vvc_intra_pred_angle_derive(i32 noundef %0) #0 {
  %2 = alloca i32, align 4
  %3 = alloca i32, align 4
  %4 = alloca i32, align 4
  %5 = alloca i32, align 4
  store i32 %0, ptr %2, align 4, !tbaa !4
  call void @llvm.lifetime.start.p0(i64 4, ptr %3) #6
  store i32 1, ptr %3, align 4, !tbaa !4
  call void @llvm.lifetime.start.p0(i64 4, ptr %4) #6
  call void @llvm.lifetime.start.p0(i64 4, ptr %5) #6
  %6 = load i32, ptr %2, align 4, !tbaa !4
  %7 = icmp sgt i32 %6, 34
  br i1 %7, label %8, label %11

8:                                                ; preds = %1
  %9 = load i32, ptr %2, align 4, !tbaa !4
  %10 = sub nsw i32 %9, 50
  store i32 %10, ptr %4, align 4, !tbaa !4
  br label %21

11:                                               ; preds = %1
  %12 = load i32, ptr %2, align 4, !tbaa !4
  %13 = icmp sgt i32 %12, 0
  br i1 %13, label %14, label %17

14:                                               ; preds = %11
  %15 = load i32, ptr %2, align 4, !tbaa !4
  %16 = sub nsw i32 18, %15
  store i32 %16, ptr %4, align 4, !tbaa !4
  br label %20

17:                                               ; preds = %11
  %18 = load i32, ptr %2, align 4, !tbaa !4
  %19 = sub nsw i32 16, %18
  store i32 %19, ptr %4, align 4, !tbaa !4
  br label %20

20:                                               ; preds = %17, %14
  br label %21

21:                                               ; preds = %20, %8
  %22 = load i32, ptr %4, align 4, !tbaa !4
  %23 = icmp slt i32 %22, 0
  br i1 %23, label %24, label %27

24:                                               ; preds = %21
  %25 = load i32, ptr %4, align 4, !tbaa !4
  %26 = sub nsw i32 0, %25
  store i32 %26, ptr %4, align 4, !tbaa !4
  store i32 -1, ptr %3, align 4, !tbaa !4
  br label %27

27:                                               ; preds = %24, %21
  %28 = load i32, ptr %3, align 4, !tbaa !4
  %29 = load i32, ptr %4, align 4, !tbaa !4
  %30 = sext i32 %29 to i64
  %31 = getelementptr inbounds [31 x i32], ptr @ff_vvc_intra_pred_angle_derive.angles, i64 0, i64 %30
  %32 = load i32, ptr %31, align 4, !tbaa !4
  %33 = mul nsw i32 %28, %32
  store i32 %33, ptr %5, align 4, !tbaa !4
  %34 = load i32, ptr %5, align 4, !tbaa !4
  call void @llvm.lifetime.end.p0(i64 4, ptr %5) #6
  call void @llvm.lifetime.end.p0(i64 4, ptr %4) #6
  call void @llvm.lifetime.end.p0(i64 4, ptr %3) #6
  ret i32 %34
}

; Function Attrs: alwaysinline nounwind willreturn memory(none) uwtable
define internal i32 @ff_log2_c(i32 noundef %0) #4 {
  %2 = alloca i32, align 4
  %3 = alloca i32, align 4
  store i32 %0, ptr %2, align 4, !tbaa !4
  call void @llvm.lifetime.start.p0(i64 4, ptr %3) #6
  store i32 0, ptr %3, align 4, !tbaa !4
  %4 = load i32, ptr %2, align 4, !tbaa !4
  %5 = and i32 %4, -65536
  %6 = icmp ne i32 %5, 0
  br i1 %6, label %7, label %12

7:                                                ; preds = %1
  %8 = load i32, ptr %2, align 4, !tbaa !4
  %9 = lshr i32 %8, 16
  store i32 %9, ptr %2, align 4, !tbaa !4
  %10 = load i32, ptr %3, align 4, !tbaa !4
  %11 = add nsw i32 %10, 16
  store i32 %11, ptr %3, align 4, !tbaa !4
  br label %12

12:                                               ; preds = %7, %1
  %13 = load i32, ptr %2, align 4, !tbaa !4
  %14 = and i32 %13, 65280
  %15 = icmp ne i32 %14, 0
  br i1 %15, label %16, label %21

16:                                               ; preds = %12
  %17 = load i32, ptr %2, align 4, !tbaa !4
  %18 = lshr i32 %17, 8
  store i32 %18, ptr %2, align 4, !tbaa !4
  %19 = load i32, ptr %3, align 4, !tbaa !4
  %20 = add nsw i32 %19, 8
  store i32 %20, ptr %3, align 4, !tbaa !4
  br label %21

21:                                               ; preds = %16, %12
  %22 = load i32, ptr %2, align 4, !tbaa !4
  %23 = zext i32 %22 to i64
  %24 = getelementptr inbounds nuw [256 x i8], ptr @ff_log2_tab, i64 0, i64 %23
  %25 = load i8, ptr %24, align 1, !tbaa !8
  %26 = zext i8 %25 to i32
  %27 = load i32, ptr %3, align 4, !tbaa !4
  %28 = add nsw i32 %27, %26
  store i32 %28, ptr %3, align 4, !tbaa !4
  %29 = load i32, ptr %3, align 4, !tbaa !4
  call void @llvm.lifetime.end.p0(i64 4, ptr %3) #6
  ret i32 %29
}

; Function Attrs: nounwind uwtable
define i32 @ff_vvc_nscale_derive(i32 noundef %0, i32 noundef %1, i32 noundef %2) #0 {
  %4 = alloca i32, align 4
  %5 = alloca i32, align 4
  %6 = alloca i32, align 4
  %7 = alloca i32, align 4
  %8 = alloca i32, align 4
  %9 = alloca i32, align 4
  %10 = alloca i32, align 4
  store i32 %0, ptr %4, align 4, !tbaa !4
  store i32 %1, ptr %5, align 4, !tbaa !4
  store i32 %2, ptr %6, align 4, !tbaa !4
  call void @llvm.lifetime.start.p0(i64 4, ptr %7) #6
  call void @llvm.lifetime.start.p0(i64 4, ptr %8) #6
  br label %11

11:                                               ; preds = %3
  %12 = load i32, ptr %6, align 4, !tbaa !4
  %13 = icmp slt i32 %12, 81
  br i1 %13, label %14, label %20

14:                                               ; preds = %11
  %15 = load i32, ptr %6, align 4, !tbaa !4
  %16 = icmp sgt i32 %15, 18
  br i1 %16, label %17, label %21

17:                                               ; preds = %14
  %18 = load i32, ptr %6, align 4, !tbaa !4
  %19 = icmp slt i32 %18, 50
  br i1 %19, label %20, label %21

20:                                               ; preds = %17, %11
  call void (ptr, i32, ptr, ...) @av_log(ptr noundef null, i32 noundef 0, ptr noundef @.str, ptr noundef @.str.1, ptr noundef @.str.2, i32 noundef 45)
  call void @abort() #7
  unreachable

21:                                               ; preds = %17, %14
  br label %22

22:                                               ; preds = %21
  br label %23

23:                                               ; preds = %22
  %24 = load i32, ptr %6, align 4, !tbaa !4
  %25 = icmp eq i32 %24, 0
  br i1 %25, label %35, label %26

26:                                               ; preds = %23
  %27 = load i32, ptr %6, align 4, !tbaa !4
  %28 = icmp eq i32 %27, 1
  br i1 %28, label %35, label %29

29:                                               ; preds = %26
  %30 = load i32, ptr %6, align 4, !tbaa !4
  %31 = icmp eq i32 %30, 18
  br i1 %31, label %35, label %32

32:                                               ; preds = %29
  %33 = load i32, ptr %6, align 4, !tbaa !4
  %34 = icmp eq i32 %33, 50
  br i1 %34, label %35, label %43

35:                                               ; preds = %32, %29, %26, %23
  %36 = load i32, ptr %4, align 4, !tbaa !4
  %37 = call i32 @ff_log2_c(i32 noundef %36) #8
  %38 = load i32, ptr %5, align 4, !tbaa !4
  %39 = call i32 @ff_log2_c(i32 noundef %38) #8
  %40 = add nsw i32 %37, %39
  %41 = sub nsw i32 %40, 2
  %42 = ashr i32 %41, 2
  store i32 %42, ptr %8, align 4, !tbaa !4
  br label %79

43:                                               ; preds = %32
  call void @llvm.lifetime.start.p0(i64 4, ptr %9) #6
  %44 = load i32, ptr %6, align 4, !tbaa !4
  %45 = call i32 @ff_vvc_intra_pred_angle_derive(i32 noundef %44)
  store i32 %45, ptr %9, align 4, !tbaa !4
  call void @llvm.lifetime.start.p0(i64 4, ptr %10) #6
  %46 = load i32, ptr %9, align 4, !tbaa !4
  %47 = call i32 @ff_vvc_intra_inv_angle_derive(i32 noundef %46)
  store i32 %47, ptr %10, align 4, !tbaa !4
  %48 = load i32, ptr %6, align 4, !tbaa !4
  %49 = icmp sge i32 %48, 50
  br i1 %49, label %50, label %52

50:                                               ; preds = %43
  %51 = load i32, ptr %5, align 4, !tbaa !4
  store i32 %51, ptr %7, align 4, !tbaa !4
  br label %52

52:                                               ; preds = %50, %43
  %53 = load i32, ptr %6, align 4, !tbaa !4
  %54 = icmp sle i32 %53, 18
  br i1 %54, label %55, label %57

55:                                               ; preds = %52
  %56 = load i32, ptr %4, align 4, !tbaa !4
  store i32 %56, ptr %7, align 4, !tbaa !4
  br label %57

57:                                               ; preds = %55, %52
  %58 = load i32, ptr %7, align 4, !tbaa !4
  %59 = call i32 @ff_log2_c(i32 noundef %58) #8
  %60 = load i32, ptr %10, align 4, !tbaa !4
  %61 = mul nsw i32 3, %60
  %62 = sub nsw i32 %61, 2
  %63 = call i32 @ff_log2_c(i32 noundef %62) #8
  %64 = sub nsw i32 %59, %63
  %65 = add nsw i32 %64, 8
  %66 = icmp sgt i32 2, %65
  br i1 %66, label %67, label %76

67:                                               ; preds = %57
  %68 = load i32, ptr %7, align 4, !tbaa !4
  %69 = call i32 @ff_log2_c(i32 noundef %68) #8
  %70 = load i32, ptr %10, align 4, !tbaa !4
  %71 = mul nsw i32 3, %70
  %72 = sub nsw i32 %71, 2
  %73 = call i32 @ff_log2_c(i32 noundef %72) #8
  %74 = sub nsw i32 %69, %73
  %75 = add nsw i32 %74, 8
  br label %77

76:                                               ; preds = %57
  br label %77

77:                                               ; preds = %76, %67
  %78 = phi i32 [ %75, %67 ], [ 2, %76 ]
  store i32 %78, ptr %8, align 4, !tbaa !4
  call void @llvm.lifetime.end.p0(i64 4, ptr %10) #6
  call void @llvm.lifetime.end.p0(i64 4, ptr %9) #6
  br label %79

79:                                               ; preds = %77, %35
  %80 = load i32, ptr %8, align 4, !tbaa !4
  call void @llvm.lifetime.end.p0(i64 4, ptr %8) #6
  call void @llvm.lifetime.end.p0(i64 4, ptr %7) #6
  ret i32 %80
}