; Function Attrs: nounwind uwtable
define range(i32 -271, 140) i32 @ff_vvc_nscale_derive(i32 noundef %0, i32 noundef %1, i32 noundef %2) local_unnamed_addr #1 {
  %4 = icmp sgt i32 %2, 80
  %5 = add i32 %2, -19
  %or.cond = icmp ult i32 %5, 31
  %or.cond29 = or i1 %4, %or.cond
  br i1 %or.cond29, label %6, label %7

6:                                                ; preds = %3
  tail call void (ptr, i32, ptr, ...) @av_log(ptr noundef null, i32 noundef 0, ptr noundef nonnull @.str, ptr noundef nonnull @.str.1, ptr noundef nonnull @.str.2, i32 noundef 45) #8
  tail call void @abort() #9
  unreachable

7:                                                ; preds = %3
  switch i32 %2, label %28 [
    i32 50, label %8
    i32 18, label %8
    i32 1, label %8
    i32 0, label %8
  ]

8:                                                ; preds = %7, %7, %7, %7
  %.not.i = icmp ult i32 %0, 65536
  %9 = lshr i32 %0, 16
  %spec.select.i = select i1 %.not.i, i32 %0, i32 %9
  %spec.select12.i = select i1 %.not.i, i32 0, i32 16
  %.not11.i = icmp samesign ult i32 %spec.select.i, 256
  %10 = lshr i32 %spec.select.i, 8
  %11 = or disjoint i32 %spec.select12.i, 8
  %.110.i = select i1 %.not11.i, i32 %spec.select.i, i32 %10
  %.1.i = select i1 %.not11.i, i32 %spec.select12.i, i32 %11
  %12 = zext nneg i32 %.110.i to i64
  %13 = getelementptr inbounds nuw [256 x i8], ptr @ff_log2_tab, i64 0, i64 %12
  %14 = load i8, ptr %13, align 1, !tbaa !4
  %15 = zext i8 %14 to i32
  %.not.i30 = icmp ult i32 %1, 65536
  %16 = lshr i32 %1, 16
  %spec.select.i31 = select i1 %.not.i30, i32 %1, i32 %16
  %spec.select12.i32 = select i1 %.not.i30, i32 0, i32 16
  %.not11.i33 = icmp samesign ult i32 %spec.select.i31, 256
  %17 = lshr i32 %spec.select.i31, 8
  %18 = or disjoint i32 %spec.select12.i32, 8
  %.110.i34 = select i1 %.not11.i33, i32 %spec.select.i31, i32 %17
  %.1.i35 = select i1 %.not11.i33, i32 %spec.select12.i32, i32 %18
  %19 = zext nneg i32 %.110.i34 to i64
  %20 = getelementptr inbounds nuw [256 x i8], ptr @ff_log2_tab, i64 0, i64 %19
  %21 = load i8, ptr %20, align 1, !tbaa !4
  %22 = zext i8 %21 to i32
  %23 = add nsw i32 %.1.i, -2
  %24 = add nsw i32 %23, %.1.i35
  %25 = add nsw i32 %24, %15
  %26 = add nsw i32 %25, %22
  %27 = ashr i32 %26, 2
  br label %74

28:                                               ; preds = %7
  %29 = icmp sgt i32 %2, 34
  br i1 %29, label %30, label %32

30:                                               ; preds = %28
  %31 = add nsw i32 %2, -50
  br label %ff_vvc_intra_pred_angle_derive.exit

32:                                               ; preds = %28
  %33 = icmp sgt i32 %2, 0
  br i1 %33, label %34, label %36

34:                                               ; preds = %32
  %35 = sub nsw i32 18, %2
  br label %ff_vvc_intra_pred_angle_derive.exit

36:                                               ; preds = %32
  %37 = sub nsw i32 16, %2
  br label %ff_vvc_intra_pred_angle_derive.exit

ff_vvc_intra_pred_angle_derive.exit:              ; preds = %30, %34, %36
  %.010.i = phi i32 [ %31, %30 ], [ %35, %34 ], [ %37, %36 ]
  %spec.select.i48 = tail call i32 @llvm.abs.i32(i32 %.010.i, i1 true)
  %38 = zext nneg i32 %spec.select.i48 to i64
  %39 = getelementptr inbounds nuw [31 x i32], ptr @ff_vvc_intra_pred_angle_derive.angles, i64 0, i64 %38
  %40 = load i32, ptr %39, align 4, !tbaa !7
  %41 = sub nsw i32 0, %40
  %.inv14.i = icmp slt i32 %.010.i, 0
  %42 = select i1 %.inv14.i, i32 %41, i32 %40
  %43 = icmp sgt i32 %42, 0
  br i1 %43, label %44, label %48

44:                                               ; preds = %ff_vvc_intra_pred_angle_derive.exit
  %45 = lshr i32 %42, 1
  %46 = add nuw nsw i32 %45, 16384
  %47 = udiv i32 %46, %42
  br label %ff_vvc_intra_inv_angle_derive.exit

48:                                               ; preds = %ff_vvc_intra_pred_angle_derive.exit
  %49 = sub nsw i32 0, %42
  %50 = lshr i32 %49, 1
  %51 = add nuw nsw i32 %50, 16384
  %52 = udiv i32 %51, %49
  %53 = sub nsw i32 0, %52
  br label %ff_vvc_intra_inv_angle_derive.exit

ff_vvc_intra_inv_angle_derive.exit:               ; preds = %44, %48
  %.0.i = phi i32 [ %47, %44 ], [ %53, %48 ]
  %54 = icmp slt i32 %2, 19
  %.1 = select i1 %54, i32 %0, i32 %1
  %.not.i36 = icmp ult i32 %.1, 65536
  %55 = lshr i32 %.1, 16
  %spec.select.i37 = select i1 %.not.i36, i32 %.1, i32 %55
  %spec.select12.i38 = select i1 %.not.i36, i32 0, i32 16
  %.not11.i39 = icmp samesign ult i32 %spec.select.i37, 256
  %56 = lshr i32 %spec.select.i37, 8
  %57 = or disjoint i32 %spec.select12.i38, 8
  %.110.i40 = select i1 %.not11.i39, i32 %spec.select.i37, i32 %56
  %.1.i41 = select i1 %.not11.i39, i32 %spec.select12.i38, i32 %57
  %58 = zext nneg i32 %.110.i40 to i64
  %59 = getelementptr inbounds nuw [256 x i8], ptr @ff_log2_tab, i64 0, i64 %58
  %60 = load i8, ptr %59, align 1, !tbaa !4
  %61 = zext i8 %60 to i32
  %62 = mul nsw i32 %.0.i, 3
  %63 = add nsw i32 %62, -2
  %.not.i42 = icmp ult i32 %63, 65536
  %64 = lshr i32 %63, 16
  %spec.select.i43 = select i1 %.not.i42, i32 %63, i32 %64
  %spec.select12.i44.neg = select i1 %.not.i42, i32 0, i32 -16
  %.not11.i45 = icmp samesign ult i32 %spec.select.i43, 256
  %65 = lshr i32 %spec.select.i43, 8
  %.neg50 = add nsw i32 %spec.select12.i44.neg, -8
  %.110.i46 = select i1 %.not11.i45, i32 %spec.select.i43, i32 %65
  %.1.i47.neg51 = select i1 %.not11.i45, i32 %spec.select12.i44.neg, i32 %.neg50
  %66 = zext nneg i32 %.110.i46 to i64
  %67 = getelementptr inbounds nuw [256 x i8], ptr @ff_log2_tab, i64 0, i64 %66
  %68 = load i8, ptr %67, align 1, !tbaa !4
  %69 = zext i8 %68 to i32
  %.neg49 = add nuw nsw i32 %.1.i41, %61
  %70 = sub nsw i32 %.neg49, %69
  %71 = add nsw i32 %70, %.1.i47.neg51
  %72 = tail call i32 @llvm.smin.i32(i32 %71, i32 -6)
  %73 = add nsw i32 %72, 8
  br label %74

74:                                               ; preds = %ff_vvc_intra_inv_angle_derive.exit, %8
  %.027 = phi i32 [ %27, %8 ], [ %73, %ff_vvc_intra_inv_angle_derive.exit ]
  ret i32 %.027
}